target datalayout = "e-m:e-p270:32:32-p271:32:32-p272:64:64-i64:64-i128:128-f80:128-n8:16:32:64-S128"
target triple = "x86_64-pc-linux-gnu"

%struct.FSEv05_DTableHeader = type { i16, i16 }
%struct.FSEv05_decode_t = type { i16, i8, i8 }

; Function Attrs: nounwind uwtable
define i64 @FSEv05_buildDTable_raw(ptr noundef %0, i32 noundef %1) #0 {
  %3 = alloca i64, align 8
  %4 = alloca ptr, align 8
  %5 = alloca i32, align 4
  %6 = alloca ptr, align 8
  %7 = alloca ptr, align 8
  %8 = alloca ptr, align 8
  %9 = alloca ptr, align 8
  %10 = alloca i32, align 4
  %11 = alloca i32, align 4
  %12 = alloca i32, align 4
  %13 = alloca i32, align 4
  %14 = alloca i32, align 4
  store ptr %0, ptr %4, align 8, !tbaa !7
  store i32 %1, ptr %5, align 4, !tbaa !3
  call void @llvm.lifetime.start.p0(i64 8, ptr %6) #11
  %15 = load ptr, ptr %4, align 8, !tbaa !7
  store ptr %15, ptr %6, align 8, !tbaa !12
  call void @llvm.lifetime.start.p0(i64 8, ptr %7) #11
  %16 = load ptr, ptr %6, align 8, !tbaa !12
  store ptr %16, ptr %7, align 8, !tbaa !12
  call void @llvm.lifetime.start.p0(i64 8, ptr %8) #11
  %17 = load ptr, ptr %4, align 8, !tbaa !7
  %18 = getelementptr inbounds i32, ptr %17, i64 1
  store ptr %18, ptr %8, align 8, !tbaa !12
  call void @llvm.lifetime.start.p0(i64 8, ptr %9) #11
  %19 = load ptr, ptr %8, align 8, !tbaa !12
  store ptr %19, ptr %9, align 8, !tbaa !12
  call void @llvm.lifetime.start.p0(i64 4, ptr %10) #11
  %20 = load i32, ptr %5, align 4, !tbaa !3
  %21 = shl i32 1, %20
  store i32 %21, ptr %10, align 4, !tbaa !3
  call void @llvm.lifetime.start.p0(i64 4, ptr %11) #11
  %22 = load i32, ptr %10, align 4, !tbaa !3
  %23 = sub i32 %22, 1
  store i32 %23, ptr %11, align 4, !tbaa !3
  call void @llvm.lifetime.start.p0(i64 4, ptr %12) #11
  %24 = load i32, ptr %11, align 4, !tbaa !3
  store i32 %24, ptr %12, align 4, !tbaa !3
  call void @llvm.lifetime.start.p0(i64 4, ptr %13) #11
  %25 = load i32, ptr %5, align 4, !tbaa !3
  %26 = icmp ult i32 %25, 1
  br i1 %26, label %27, label %28

27:                                               ; preds = %2
  store i64 -1, ptr %3, align 8
  store i32 1, ptr %14, align 4
  br label %63

28:                                               ; preds = %2
  %29 = load i32, ptr %5, align 4, !tbaa !3
  %30 = trunc i32 %29 to i16
  %31 = load ptr, ptr %7, align 8, !tbaa !12
  %32 = getelementptr inbounds nuw %struct.FSEv05_DTableHeader, ptr %31, i32 0, i32 0
  store i16 %30, ptr %32, align 2, !tbaa !15
  %33 = load ptr, ptr %7, align 8, !tbaa !12
  %34 = getelementptr inbounds nuw %struct.FSEv05_DTableHeader, ptr %33, i32 0, i32 1
  store i16 1, ptr %34, align 2, !tbaa !28
  store i32 0, ptr %13, align 4, !tbaa !3
  br label %35

35:                                               ; preds = %59, %28
  %36 = load i32, ptr %13, align 4, !tbaa !3
  %37 = load i32, ptr %12, align 4, !tbaa !3
  %38 = icmp ule i32 %36, %37
  br i1 %38, label %39, label %62

39:                                               ; preds = %35
  %40 = load ptr, ptr %9, align 8, !tbaa !12
  %41 = load i32, ptr %13, align 4, !tbaa !3
  %42 = zext i32 %41 to i64
  %43 = getelementptr inbounds nuw %struct.FSEv05_decode_t, ptr %40, i64 %42
  %44 = getelementptr inbounds nuw %struct.FSEv05_decode_t, ptr %43, i32 0, i32 0
  store i16 0, ptr %44, align 2, !tbaa !26
  %45 = load i32, ptr %13, align 4, !tbaa !3
  %46 = trunc i32 %45 to i8
  %47 = load ptr, ptr %9, align 8, !tbaa !12
  %48 = load i32, ptr %13, align 4, !tbaa !3
  %49 = zext i32 %48 to i64
  %50 = getelementptr inbounds nuw %struct.FSEv05_decode_t, ptr %47, i64 %49
  %51 = getelementptr inbounds nuw %struct.FSEv05_decode_t, ptr %50, i32 0, i32 1
  store i8 %46, ptr %51, align 2, !tbaa !17
  %52 = load i32, ptr %5, align 4, !tbaa !3
  %53 = trunc i32 %52 to i8
  %54 = load ptr, ptr %9, align 8, !tbaa !12
  %55 = load i32, ptr %13, align 4, !tbaa !3
  %56 = zext i32 %55 to i64
  %57 = getelementptr inbounds nuw %struct.FSEv05_decode_t, ptr %54, i64 %56
  %58 = getelementptr inbounds nuw %struct.FSEv05_decode_t, ptr %57, i32 0, i32 2
  store i8 %53, ptr %58, align 1, !tbaa !25
  br label %59

59:                                               ; preds = %39
  %60 = load i32, ptr %13, align 4, !tbaa !3
  %61 = add i32 %60, 1
  store i32 %61, ptr %13, align 4, !tbaa !3
  br label %35, !llvm.loop !38

62:                                               ; preds = %35
  store i64 0, ptr %3, align 8
  store i32 1, ptr %14, align 4
  br label %63

63:                                               ; preds = %62, %27
  call void @llvm.lifetime.end.p0(i64 4, ptr %13) #11
  call void @llvm.lifetime.end.p0(i64 4, ptr %12) #11
  call void @llvm.lifetime.end.p0(i64 4, ptr %11) #11
  call void @llvm.lifetime.end.p0(i64 4, ptr %10) #11
  call void @llvm.lifetime.end.p0(i64 8, ptr %9) #11
  call void @llvm.lifetime.end.p0(i64 8, ptr %8) #11
  call void @llvm.lifetime.end.p0(i64 8, ptr %7) #11
  call void @llvm.lifetime.end.p0(i64 8, ptr %6) #11
  %64 = load i64, ptr %3, align 8
  ret i64 %64
}